target datalayout = "e-m:e-p270:32:32-p271:32:32-p272:64:64-i64:64-i128:128-f80:128-n8:16:32:64-S128"
target triple = "x86_64-pc-linux-gnu"

%struct.tuplehash_hash = type { i64, i32, i32, i32, ptr, ptr, ptr }
%struct.TupleHashTableData = type { ptr, i32, ptr, ptr, ptr, ptr, ptr, ptr, ptr, ptr, ptr, ptr, ptr }
%struct.ExprContext = type { i32, ptr, ptr, ptr, ptr, ptr, ptr, ptr, ptr, ptr, i64, i8, i64, i8, ptr, ptr, ptr, ptr }
%struct.ExprState = type { i32, i8, i8, i64, ptr, ptr, ptr, ptr, ptr, i32, i32, ptr, ptr, ptr, ptr, ptr, ptr, ptr }

@CurrentMemoryContext = external global ptr, align 8

; Function Attrs: inlinehint nounwind uwtable
define internal i32 @murmurhash32(i32 noundef %0) #3 {
  %2 = alloca i32, align 4
  %3 = alloca i32, align 4
  store i32 %0, ptr %2, align 4
  call void @llvm.lifetime.start.p0(i64 4, ptr %3) #9
  %4 = load i32, ptr %2, align 4
  store i32 %4, ptr %3, align 4
  %5 = load i32, ptr %3, align 4
  %6 = lshr i32 %5, 16
  %7 = load i32, ptr %3, align 4
  %8 = xor i32 %7, %6
  store i32 %8, ptr %3, align 4
  %9 = load i32, ptr %3, align 4
  %10 = mul i32 %9, -2048144789
  store i32 %10, ptr %3, align 4
  %11 = load i32, ptr %3, align 4
  %12 = lshr i32 %11, 13
  %13 = load i32, ptr %3, align 4
  %14 = xor i32 %13, %12
  store i32 %14, ptr %3, align 4
  %15 = load i32, ptr %3, align 4
  %16 = mul i32 %15, -1028477387
  store i32 %16, ptr %3, align 4
  %17 = load i32, ptr %3, align 4
  %18 = lshr i32 %17, 16
  %19 = load i32, ptr %3, align 4
  %20 = xor i32 %19, %18
  store i32 %20, ptr %3, align 4
  %21 = load i32, ptr %3, align 4
  call void @llvm.lifetime.end.p0(i64 4, ptr %3) #9
  ret i32 %21
}

; Function Attrs: inlinehint nounwind uwtable
define internal i32 @DatumGetUInt32(i64 noundef %0) #3 {
  %2 = alloca i64, align 8
  store i64 %0, ptr %2, align 8
  %3 = load i64, ptr %2, align 8
  %4 = trunc i64 %3 to i32
  ret i32 %4
}

; Function Attrs: inlinehint nounwind uwtable
define internal i64 @ExecEvalExpr(ptr noundef %0, ptr noundef %1, ptr noundef %2) #3 {
  %4 = alloca ptr, align 8
  %5 = alloca ptr, align 8
  %6 = alloca ptr, align 8
  store ptr %0, ptr %4, align 8
  store ptr %1, ptr %5, align 8
  store ptr %2, ptr %6, align 8
  %7 = load ptr, ptr %4, align 8
  %8 = getelementptr inbounds nuw %struct.ExprState, ptr %7, i32 0, i32 6
  %9 = load ptr, ptr %8, align 8
  %10 = load ptr, ptr %4, align 8
  %11 = load ptr, ptr %5, align 8
  %12 = load ptr, ptr %6, align 8
  %13 = call i64 %9(ptr noundef %10, ptr noundef %11, ptr noundef %12)
  ret i64 %13
}

; Function Attrs: inlinehint nounwind uwtable
define internal i32 @TupleHashTableHash_internal(ptr noundef %0, ptr noundef %1) #3 {
  %3 = alloca ptr, align 8
  %4 = alloca ptr, align 8
  %5 = alloca ptr, align 8
  %6 = alloca i32, align 4
  %7 = alloca ptr, align 8
  %8 = alloca i8, align 1
  store ptr %0, ptr %3, align 8
  store ptr %1, ptr %4, align 8
  call void @llvm.lifetime.start.p0(i64 8, ptr %5) #9
  %9 = load ptr, ptr %3, align 8
  %10 = getelementptr inbounds nuw %struct.tuplehash_hash, ptr %9, i32 0, i32 6
  %11 = load ptr, ptr %10, align 8
  store ptr %11, ptr %5, align 8
  call void @llvm.lifetime.start.p0(i64 4, ptr %6) #9
  call void @llvm.lifetime.start.p0(i64 8, ptr %7) #9
  call void @llvm.lifetime.start.p0(i64 1, ptr %8) #9
  %12 = load ptr, ptr %4, align 8
  %13 = icmp eq ptr %12, null
  br i1 %13, label %14, label %30

14:                                               ; preds = %2
  %15 = load ptr, ptr %5, align 8
  %16 = getelementptr inbounds nuw %struct.TupleHashTableData, ptr %15, i32 0, i32 9
  %17 = load ptr, ptr %16, align 8
  %18 = load ptr, ptr %5, align 8
  %19 = getelementptr inbounds nuw %struct.TupleHashTableData, ptr %18, i32 0, i32 12
  %20 = load ptr, ptr %19, align 8
  %21 = getelementptr inbounds nuw %struct.ExprContext, ptr %20, i32 0, i32 2
  store ptr %17, ptr %21, align 8
  %22 = load ptr, ptr %5, align 8
  %23 = getelementptr inbounds nuw %struct.TupleHashTableData, ptr %22, i32 0, i32 10
  %24 = load ptr, ptr %23, align 8
  %25 = load ptr, ptr %5, align 8
  %26 = getelementptr inbounds nuw %struct.TupleHashTableData, ptr %25, i32 0, i32 12
  %27 = load ptr, ptr %26, align 8
  %28 = call i64 @ExecEvalExpr(ptr noundef %24, ptr noundef %27, ptr noundef %8)
  %29 = call i32 @DatumGetUInt32(i64 noundef %28)
  store i32 %29, ptr %6, align 4
  br label %49

30:                                               ; preds = %2
  %31 = load ptr, ptr %5, align 8
  %32 = getelementptr inbounds nuw %struct.TupleHashTableData, ptr %31, i32 0, i32 8
  %33 = load ptr, ptr %32, align 8
  %34 = load ptr, ptr %5, align 8
  %35 = getelementptr inbounds nuw %struct.TupleHashTableData, ptr %34, i32 0, i32 12
  %36 = load ptr, ptr %35, align 8
  %37 = getelementptr inbounds nuw %struct.ExprContext, ptr %36, i32 0, i32 2
  store ptr %33, ptr %37, align 8
  store ptr %33, ptr %7, align 8
  %38 = load ptr, ptr %4, align 8
  %39 = load ptr, ptr %7, align 8
  %40 = call ptr @ExecStoreMinimalTuple(ptr noundef %38, ptr noundef %39, i1 noundef zeroext false)
  %41 = load ptr, ptr %5, align 8
  %42 = getelementptr inbounds nuw %struct.TupleHashTableData, ptr %41, i32 0, i32 3
  %43 = load ptr, ptr %42, align 8
  %44 = load ptr, ptr %5, align 8
  %45 = getelementptr inbounds nuw %struct.TupleHashTableData, ptr %44, i32 0, i32 12
  %46 = load ptr, ptr %45, align 8
  %47 = call i64 @ExecEvalExpr(ptr noundef %43, ptr noundef %46, ptr noundef %8)
  %48 = call i32 @DatumGetUInt32(i64 noundef %47)
  store i32 %48, ptr %6, align 4
  br label %49

49:                                               ; preds = %30, %14
  %50 = load i32, ptr %6, align 4
  %51 = call i32 @murmurhash32(i32 noundef %50)
  call void @llvm.lifetime.end.p0(i64 1, ptr %8) #9
  call void @llvm.lifetime.end.p0(i64 8, ptr %7) #9
  call void @llvm.lifetime.end.p0(i64 4, ptr %6) #9
  call void @llvm.lifetime.end.p0(i64 8, ptr %5) #9
  ret i32 %51
}

; Function Attrs: inlinehint nounwind uwtable
define internal ptr @MemoryContextSwitchTo(ptr noundef %0) #3 {
  %2 = alloca ptr, align 8
  %3 = alloca ptr, align 8
  store ptr %0, ptr %2, align 8
  call void @llvm.lifetime.start.p0(i64 8, ptr %3) #9
  %4 = load ptr, ptr @CurrentMemoryContext, align 8
  store ptr %4, ptr %3, align 8
  %5 = load ptr, ptr %2, align 8
  store ptr %5, ptr @CurrentMemoryContext, align 8
  %6 = load ptr, ptr %3, align 8
  call void @llvm.lifetime.end.p0(i64 8, ptr %3) #9
  ret ptr %6
}

; Function Attrs: nounwind uwtable
define dso_local i32 @TupleHashTableHash(ptr noundef %0, ptr noundef %1) #0 {
  %3 = alloca ptr, align 8
  %4 = alloca ptr, align 8
  %5 = alloca ptr, align 8
  %6 = alloca i32, align 4
  store ptr %0, ptr %3, align 8
  store ptr %1, ptr %4, align 8
  call void @llvm.lifetime.start.p0(i64 8, ptr %5) #9
  call void @llvm.lifetime.start.p0(i64 4, ptr %6) #9
  %7 = load ptr, ptr %4, align 8
  %8 = load ptr, ptr %3, align 8
  %9 = getelementptr inbounds nuw %struct.TupleHashTableData, ptr %8, i32 0, i32 9
  store ptr %7, ptr %9, align 8
  %10 = load ptr, ptr %3, align 8
  %11 = getelementptr inbounds nuw %struct.TupleHashTableData, ptr %10, i32 0, i32 3
  %12 = load ptr, ptr %11, align 8
  %13 = load ptr, ptr %3, align 8
  %14 = getelementptr inbounds nuw %struct.TupleHashTableData, ptr %13, i32 0, i32 10
  store ptr %12, ptr %14, align 8
  %15 = load ptr, ptr %3, align 8
  %16 = getelementptr inbounds nuw %struct.TupleHashTableData, ptr %15, i32 0, i32 7
  %17 = load ptr, ptr %16, align 8
  %18 = call ptr @MemoryContextSwitchTo(ptr noundef %17)
  store ptr %18, ptr %5, align 8
  %19 = load ptr, ptr %3, align 8
  %20 = getelementptr inbounds nuw %struct.TupleHashTableData, ptr %19, i32 0, i32 0
  %21 = load ptr, ptr %20, align 8
  %22 = call i32 @TupleHashTableHash_internal(ptr noundef %21, ptr noundef null)
  store i32 %22, ptr %6, align 4
  %23 = load ptr, ptr %5, align 8
  %24 = call ptr @MemoryContextSwitchTo(ptr noundef %23)
  %25 = load i32, ptr %6, align 4
  call void @llvm.lifetime.end.p0(i64 4, ptr %6) #9
  call void @llvm.lifetime.end.p0(i64 8, ptr %5) #9
  ret i32 %25
}