; Function Attrs: nounwind uwtable
define dso_local i32 @TupleHashTableHash(ptr noundef captures(none) initializes((72, 88)) %0, ptr noundef %1) local_unnamed_addr #0 {
  %3 = alloca i8, align 1
  %4 = getelementptr inbounds nuw i8, ptr %0, i64 72
  store ptr %1, ptr %4, align 8
  %5 = getelementptr inbounds nuw i8, ptr %0, i64 24
  %6 = load ptr, ptr %5, align 8
  %7 = getelementptr inbounds nuw i8, ptr %0, i64 80
  store ptr %6, ptr %7, align 8
  %8 = getelementptr inbounds nuw i8, ptr %0, i64 56
  %9 = load ptr, ptr %8, align 8
  %10 = load ptr, ptr @CurrentMemoryContext, align 8
  store ptr %9, ptr @CurrentMemoryContext, align 8
  %11 = load ptr, ptr %0, align 8
  %12 = getelementptr i8, ptr %11, i64 40
  %.val = load ptr, ptr %12, align 8
  call void @llvm.lifetime.start.p0(i64 1, ptr nonnull %3) #15
  %13 = getelementptr inbounds nuw i8, ptr %.val, i64 96
  %14 = load ptr, ptr %13, align 8
  %15 = getelementptr inbounds nuw i8, ptr %14, i64 16
  %16 = getelementptr inbounds nuw i8, ptr %.val, i64 72
  %17 = load ptr, ptr %16, align 8
  store ptr %17, ptr %15, align 8
  %18 = getelementptr inbounds nuw i8, ptr %.val, i64 80
  %19 = load ptr, ptr %18, align 8
  %20 = load ptr, ptr %13, align 8
  %21 = getelementptr inbounds nuw i8, ptr %19, i64 32
  %22 = load ptr, ptr %21, align 8
  %23 = call i64 %22(ptr noundef %19, ptr noundef %20, ptr noundef nonnull %3) #15
  %.0.i = trunc i64 %23 to i32
  %24 = lshr i32 %.0.i, 16
  %25 = xor i32 %24, %.0.i
  %26 = mul i32 %25, -2048144789
  %27 = lshr i32 %26, 13
  %28 = xor i32 %27, %26
  %29 = mul i32 %28, -1028477387
  %30 = lshr i32 %29, 16
  %31 = xor i32 %30, %29
  call void @llvm.lifetime.end.p0(i64 1, ptr nonnull %3) #15
  store ptr %10, ptr @CurrentMemoryContext, align 8
  ret i32 %31
}